(i__main__
LogFile
p0
(dp1
S'_installed_files'
p2
(dp3
S'../../../HltProcessor/HltSteering/amd64_linux26/libHltSteering.so'
p4
S'../../../InstallArea/amd64_linux26/lib/libHltSteering.so'
p5
sS'../../HltProcessor/HltSteering/HltSteering'
p6
(dp7
S'../../../HltProcessor/HltSteering/HltSteering/StepDecision.h'
p8
S'../../../InstallArea/include/HltSteering/StepDecision.h'
p9
sS'../../../HltProcessor/HltSteering/HltSteering/StepHandler.h'
p10
S'../../../InstallArea/include/HltSteering/StepHandler.h'
p11
sS'../../../HltProcessor/HltSteering/HltSteering/StepSequencer.h'
p12
S'../../../InstallArea/include/HltSteering/StepSequencer.h'
p13
ssS'../../EvtProcessor/EvtSteering/EvtSteering'
p14
(dp15
S'../../../EvtProcessor/EvtSteering/EvtSteering/StepSequencer.h'
p16
S'../../../InstallArea/include/EvtSteering/StepSequencer.h'
p17
sS'../../../EvtProcessor/EvtSteering/EvtSteering/StepDecision.h'
p18
S'../../../InstallArea/include/EvtSteering/StepDecision.h'
p19
sS'../../../EvtProcessor/EvtSteering/EvtSteering/StepHandler.h'
p20
S'../../../InstallArea/include/EvtSteering/StepHandler.h'
p21
ssS'../../../EvtProcessor/EvtSteering/amd64_linux26/libEvtSteering.so'
p22
S'../../../InstallArea/amd64_linux26/lib/libEvtSteering.so'
p23
sS'../HltProcessor/HltSteering/python'
p24
(dp25
S'../../../HltProcessor/HltSteering/python/HltSteering/__init__.py'
p26
S'../../../InstallArea/python/HltSteering/__init__.py'
p27
ssS'../EvtProcessor/EvtSteering/python'
p28
(dp29
S'../../../EvtProcessor/EvtSteering/python/EvtSteering/__init__.py'
p30
S'../../../InstallArea/python/EvtSteering/__init__.py'
p31
sssb.